target datalayout = "e-m:e-p270:32:32-p271:32:32-p272:64:64-i64:64-i128:128-f80:128-n8:16:32:64-S128"
target triple = "x86_64-pc-linux-gnu"

@proto_register_1722_aaf.ett = internal global [3 x ptr] [ptr @ett_1722_aaf, ptr @ett_1722_aaf_audio, ptr @ett_1722_aaf_sample], align 16
@.str.150 = private unnamed_addr constant [18 x i8] c"AVTP Audio Format\00", align 1
@.str.151 = private unnamed_addr constant [4 x i8] c"AAF\00", align 1
@.str.152 = private unnamed_addr constant [4 x i8] c"aaf\00", align 1
@proto_1722_aaf = internal global i32 0, align 4
@avb1722_aaf_handle = internal global ptr null, align 8

; Function Attrs: null_pointer_is_valid sspstrong uwtable
define hidden void @proto_register_1722_aaf() #0 {
  %1 = alloca ptr, align 8
  call void @llvm.lifetime.start.p0(i64 8, ptr %1) #9
  %2 = call i32 @proto_register_protocol(ptr noundef @.str.150, ptr noundef @.str.151, ptr noundef @.str.152)
  store i32 %2, ptr @proto_1722_aaf, align 4
  %3 = load i32, ptr @proto_1722_aaf, align 4
  call void @proto_register_field_array(i32 noundef %3, ptr noundef @proto_register_1722_aaf.hf, i32 noundef 16)
  call void @proto_register_subtree_array(ptr noundef @proto_register_1722_aaf.ett, i32 noundef 3)
  %4 = load i32, ptr @proto_1722_aaf, align 4
  %5 = call ptr @expert_register_protocol(i32 noundef %4)
  store ptr %5, ptr %1, align 8
  %6 = load ptr, ptr %1, align 8
  call void @expert_register_field_array(ptr noundef %6, ptr noundef @proto_register_1722_aaf.ei, i32 noundef 5)
  %7 = load i32, ptr @proto_1722_aaf, align 4
  %8 = call ptr @register_dissector(ptr noundef @.str.152, ptr noundef @dissect_1722_aaf, i32 noundef %7)
  store ptr %8, ptr @avb1722_aaf_handle, align 8
  call void @llvm.lifetime.end.p0(i64 8, ptr %1) #9
  ret void
}